; Function Attrs: nounwind uwtable
define hidden void @zif_getmyuid(ptr nocapture noundef readonly %0, ptr nocapture noundef writeonly %1) local_unnamed_addr #0 {
  %3 = getelementptr inbounds i8, ptr %0, i64 44
  %4 = load i32, ptr %3, align 4
  %.not = icmp eq i32 %4, 0
  br i1 %.not, label %6, label %5

5:                                                ; preds = %2
  tail call void @zend_wrong_parameters_none_error() #3
  br label %35

6:                                                ; preds = %2
  %7 = tail call ptr @sapi_get_stat() #3
  %8 = load i64, ptr getelementptr inbounds (%struct._php_basic_globals, ptr @basic_globals, i64 0, i32 13), align 8
  %9 = icmp eq i64 %8, -1
  %10 = load i64, ptr getelementptr inbounds (%struct._php_basic_globals, ptr @basic_globals, i64 0, i32 14), align 8
  %11 = icmp eq i64 %10, -1
  %or.cond.i.i = select i1 %9, i1 true, i1 %11
  br i1 %or.cond.i.i, label %12, label %php_getuid.exit

12:                                               ; preds = %6
  %.not.i.i = icmp eq ptr %7, null
  br i1 %.not.i.i, label %23, label %php_getuid.exit.thread

php_getuid.exit.thread:                           ; preds = %12
  %13 = getelementptr inbounds i8, ptr %7, i64 28
  %14 = load i32, ptr %13, align 4
  %15 = zext i32 %14 to i64
  store i64 %15, ptr getelementptr inbounds (%struct._php_basic_globals, ptr @basic_globals, i64 0, i32 13), align 8
  %16 = getelementptr inbounds i8, ptr %7, i64 32
  %17 = load i32, ptr %16, align 8
  %18 = zext i32 %17 to i64
  store i64 %18, ptr getelementptr inbounds (%struct._php_basic_globals, ptr @basic_globals, i64 0, i32 14), align 8
  %19 = getelementptr inbounds i8, ptr %7, i64 8
  %20 = load i64, ptr %19, align 8
  store i64 %20, ptr getelementptr inbounds (%struct._php_basic_globals, ptr @basic_globals, i64 0, i32 15), align 8
  %21 = getelementptr inbounds i8, ptr %7, i64 88
  %22 = load i64, ptr %21, align 8
  store i64 %22, ptr getelementptr inbounds (%struct._php_basic_globals, ptr @basic_globals, i64 0, i32 16), align 8
  br label %32

23:                                               ; preds = %12
  %24 = tail call i32 @getuid() #3
  %25 = zext i32 %24 to i64
  store i64 %25, ptr getelementptr inbounds (%struct._php_basic_globals, ptr @basic_globals, i64 0, i32 13), align 8
  %26 = tail call i32 @getgid() #3
  %27 = zext i32 %26 to i64
  store i64 %27, ptr getelementptr inbounds (%struct._php_basic_globals, ptr @basic_globals, i64 0, i32 14), align 8
  %.pre.i = load i64, ptr getelementptr inbounds (%struct._php_basic_globals, ptr @basic_globals, i64 0, i32 13), align 8
  br label %php_getuid.exit

php_getuid.exit:                                  ; preds = %6, %23
  %28 = phi i64 [ %8, %6 ], [ %.pre.i, %23 ]
  %29 = icmp slt i64 %28, 0
  br i1 %29, label %30, label %32

30:                                               ; preds = %php_getuid.exit
  %31 = getelementptr inbounds i8, ptr %1, i64 8
  store i32 2, ptr %31, align 8
  br label %35

32:                                               ; preds = %php_getuid.exit.thread, %php_getuid.exit
  %33 = phi i64 [ %15, %php_getuid.exit.thread ], [ %28, %php_getuid.exit ]
  store i64 %33, ptr %1, align 8
  %34 = getelementptr inbounds i8, ptr %1, i64 8
  store i32 4, ptr %34, align 8
  br label %35

35:                                               ; preds = %32, %30, %5
  ret void
}